Certificate:
    Data:
        Version: 3 (0x2)
        Serial Number: 1 (0x1)
    Signature Algorithm: sha256WithRSAEncryption
        Issuer: C=US, ST=FL, L=Miami, O=Udacity MWS Course, OU=Student, CN=localhost.com/emailAddress=vonnie2k5@gmail.com
        Validity
            Not Before: Aug 22 20:46:45 2018 GMT
            Not After : Aug 22 20:46:45 2019 GMT
        Subject: C=US, ST=FL, L=Miami, O=Udacity MWS Course, OU=Student, CN=localhost.com/emailAddress=vonnie2k5@gmail.com
        Subject Public Key Info:
            Public Key Algorithm: rsaEncryption
                Public-Key: (1024 bit)
                Modulus:
                    00:dc:71:ae:ac:42:70:b9:09:24:b8:f6:f0:24:f8:
                    ee:51:52:d1:f0:8c:2b:be:dd:69:89:78:7e:b8:2e:
                    7e:55:e0:c3:41:fc:cb:92:b2:f9:85:7d:7e:39:a8:
                    0f:45:98:8e:1c:60:20:9d:06:18:6c:f8:e6:28:34:
                    56:05:c3:a3:f6:9f:58:61:42:e1:6f:3b:57:bf:65:
                    b3:1e:34:ab:f8:aa:70:32:21:b7:30:53:3b:5a:3f:
                    a7:13:ea:51:92:bd:c4:24:29:48:34:bb:40:f1:7c:
                    47:da:0d:0b:2a:07:71:1f:75:f1:d3:d4:78:20:74:
                    ce:0f:a3:52:77:3e:6c:5a:cd
                Exponent: 65537 (0x10001)
        X509v3 extensions:
            X509v3 Basic Constraints: 
                CA:FALSE
            Netscape Comment: 
                OpenSSL Generated Certificate
            X509v3 Subject Key Identifier: 
                DD:0E:D9:95:BC:AD:C3:EE:60:F0:91:3F:DD:38:F1:F2:31:44:A4:CE
            X509v3 Authority Key Identifier: 
                keyid:76:87:8A:6F:7B:80:17:E9:79:62:2F:23:C4:DE:4F:B9:6D:F5:1A:AC

    Signature Algorithm: sha256WithRSAEncryption
         15:a9:7f:54:14:c7:56:25:c0:63:7c:cb:9f:cb:2c:3c:70:2d:
         97:6d:65:ea:c5:32:a4:dc:e8:e8:e3:28:0f:c9:80:de:1b:48:
         63:d5:ea:4c:06:d6:df:a7:57:d6:b8:b1:a2:84:ab:99:4f:11:
         b0:74:0f:af:7d:1c:2d:7a:49:7b:71:fc:cd:ac:9a:59:c0:22:
         59:3c:6a:9c:ee:bd:7c:22:41:30:4a:26:54:5b:77:05:9e:9b:
         00:16:27:35:68:b5:da:13:87:ee:fb:c4:43:7b:ab:ff:28:7f:
         1a:d3:9a:f5:f9:21:01:bb:54:f0:d3:05:14:38:e8:8d:c5:b5:
         bd:46:73:b6:da:12:df:f4:aa:b5:19:f9:e5:9f:2d:0c:ce:0f:
         29:a7:3c:b3:6a:1c:0e:9e:6f:84:c2:26:ac:35:c6:72:8b:70:
         3e:f3:b4:b4:ef:03:d3:2f:f7:0b:91:26:81:34:0b:3f:48:bb:
         5f:50:8a:80:41:73:2e:ea:08:19:b2:ef:3c:fa:3f:3e:09:ee:
         5c:4d:17:4d:72:c7:13:29:08:60:a5:ce:60:d7:d7:44:c3:f0:
         6b:fc:c6:d3:af:34:c5:ec:b8:b7:b3:00:89:9c:7a:ec:4f:52:
         49:f1:63:80:fa:11:4a:ee:3b:54:e1:41:d7:0f:89:95:02:d8:
         04:1c:0e:c8
-----BEGIN CERTIFICATE-----
MIIDnjCCAoagAwIBAgIBATANBgkqhkiG9w0BAQsFADCBlTELMAkGA1UEBhMCVVMx
CzAJBgNVBAgMAkZMMQ4wDAYDVQQHDAVNaWFtaTEbMBkGA1UECgwSVWRhY2l0eSBN
V1MgQ291cnNlMRAwDgYDVQQLDAdTdHVkZW50MRYwFAYDVQQDDA1sb2NhbGhvc3Qu
Y29tMSIwIAYJKoZIhvcNAQkBFhN2b25uaWUyazVAZ21haWwuY29tMB4XDTE4MDgy
MjIwNDY0NVoXDTE5MDgyMjIwNDY0NVowgZUxCzAJBgNVBAYTAlVTMQswCQYDVQQI
DAJGTDEOMAwGA1UEBwwFTWlhbWkxGzAZBgNVBAoMElVkYWNpdHkgTVdTIENvdXJz
ZTEQMA4GA1UECwwHU3R1ZGVudDEWMBQGA1UEAwwNbG9jYWxob3N0LmNvbTEiMCAG
CSqGSIb3DQEJARYTdm9ubmllMms1QGdtYWlsLmNvbTCBnzANBgkqhkiG9w0BAQEF
AAOBjQAwgYkCgYEA3HGurEJwuQkkuPbwJPjuUVLR8Iwrvt1piXh+uC5+VeDDQfzL
krL5hX1+OagPRZiOHGAgnQYYbPjmKDRWBcOj9p9YYULhbztXv2WzHjSr+KpwMiG3
MFM7Wj+nE+pRkr3EJClINLtA8XxH2g0LKgdxH3Xx09R4IHTOD6NSdz5sWs0CAwEA
AaN7MHkwCQYDVR0TBAIwADAsBglghkgBhvhCAQ0EHxYdT3BlblNTTCBHZW5lcmF0
ZWQgQ2VydGlmaWNhdGUwHQYDVR0OBBYEFN0O2ZW8rcPuYPCRP9048fIxRKTOMB8G
A1UdIwQYMBaAFHaHim97gBfpeWIvI8TeT7lt9RqsMA0GCSqGSIb3DQEBCwUAA4IB
AQAVqX9UFMdWJcBjfMufyyw8cC2XbWXqxTKk3Ojo4ygPyYDeG0hj1epMBtbfp1fW
uLGihKuZTxGwdA+vfRwtekl7cfzNrJpZwCJZPGqc7r18IkEwSiZUW3cFnpsAFic1
aLXaE4fu+8RDe6v/KH8a05r1+SEBu1Tw0wUUOOiNxbW9RnO22hLf9Kq1Gfnlny0M
zg8ppzyzahwOnm+EwiasNcZyi3A+87S07wPTL/cLkSaBNAs/SLtfUIqAQXMu6ggZ
su88+j8+Ce5cTRdNcscTKQhgpc5g19dEw/Br/MbTrzTF7Li3swCJnHrsT1JJ8WOA
+hFK7jtU4UHXD4mVAtgEHA7I
-----END CERTIFICATE-----
